; Function Attrs: mustprogress nounwind uwtable
define dso_local i32 @_ZN4llvm20FunctionLoweringInfo9CreateRegENS_3MVTEb(ptr nocapture noundef nonnull readonly align 8 dereferenceable(1080) %0, i16 %1, i1 noundef zeroext %2) local_unnamed_addr #0 align 2 {
  %4 = getelementptr inbounds nuw i8, ptr %0, i64 24
  %5 = load ptr, ptr %4, align 8
  %6 = getelementptr inbounds nuw i8, ptr %0, i64 16
  %7 = load ptr, ptr %6, align 8
  %8 = load ptr, ptr %7, align 8
  %9 = getelementptr inbounds i8, ptr %8, i64 544
  %10 = load ptr, ptr %9, align 8
  %11 = tail call noundef ptr %10(ptr noundef nonnull align 8 dereferenceable(408123) %7, i16 %1, i1 noundef zeroext %2) #15
  %12 = tail call i32 @_ZN4llvm19MachineRegisterInfo21createVirtualRegisterEPKNS_19TargetRegisterClassENS_9StringRefE(ptr noundef nonnull align 8 dereferenceable(512) %5, ptr noundef %11, ptr nonnull @.str, i64 0) #15
  ret i32 %12
}